target datalayout = "e-m:e-p270:32:32-p271:32:32-p272:64:64-i64:64-i128:128-f80:128-n8:16:32:64-S128"
target triple = "x86_64-pc-linux-gnu"

%struct.Vec_Int_t_ = type { i32, i32, ptr }
%struct.Vec_Wec_t_ = type { i32, i32, ptr }

; Function Attrs: inlinehint nounwind uwtable
define internal void @Vec_WecErase(ptr noundef %0) #1 {
  %2 = alloca ptr, align 8
  %3 = alloca i32, align 4
  store ptr %0, ptr %2, align 8, !tbaa !33
  call void @llvm.lifetime.start.p0(i64 4, ptr %3) #10
  store i32 0, ptr %3, align 4, !tbaa !12
  br label %4

4:                                                ; preds = %38, %1
  %5 = load i32, ptr %3, align 4, !tbaa !12
  %6 = load ptr, ptr %2, align 8, !tbaa !33
  %7 = getelementptr inbounds nuw %struct.Vec_Wec_t_, ptr %6, i32 0, i32 0
  %8 = load i32, ptr %7, align 8, !tbaa !40
  %9 = icmp slt i32 %5, %8
  br i1 %9, label %10, label %41

10:                                               ; preds = %4
  %11 = load ptr, ptr %2, align 8, !tbaa !33
  %12 = getelementptr inbounds nuw %struct.Vec_Wec_t_, ptr %11, i32 0, i32 2
  %13 = load ptr, ptr %12, align 8, !tbaa !41
  %14 = load i32, ptr %3, align 4, !tbaa !12
  %15 = sext i32 %14 to i64
  %16 = getelementptr inbounds %struct.Vec_Int_t_, ptr %13, i64 %15
  %17 = getelementptr inbounds nuw %struct.Vec_Int_t_, ptr %16, i32 0, i32 2
  %18 = load ptr, ptr %17, align 8, !tbaa !44
  %19 = icmp ne ptr %18, null
  br i1 %19, label %20, label %36

20:                                               ; preds = %10
  %21 = load ptr, ptr %2, align 8, !tbaa !33
  %22 = getelementptr inbounds nuw %struct.Vec_Wec_t_, ptr %21, i32 0, i32 2
  %23 = load ptr, ptr %22, align 8, !tbaa !41
  %24 = load i32, ptr %3, align 4, !tbaa !12
  %25 = sext i32 %24 to i64
  %26 = getelementptr inbounds %struct.Vec_Int_t_, ptr %23, i64 %25
  %27 = getelementptr inbounds nuw %struct.Vec_Int_t_, ptr %26, i32 0, i32 2
  %28 = load ptr, ptr %27, align 8, !tbaa !44
  call void @free(ptr noundef %28) #10
  %29 = load ptr, ptr %2, align 8, !tbaa !33
  %30 = getelementptr inbounds nuw %struct.Vec_Wec_t_, ptr %29, i32 0, i32 2
  %31 = load ptr, ptr %30, align 8, !tbaa !41
  %32 = load i32, ptr %3, align 4, !tbaa !12
  %33 = sext i32 %32 to i64
  %34 = getelementptr inbounds %struct.Vec_Int_t_, ptr %31, i64 %33
  %35 = getelementptr inbounds nuw %struct.Vec_Int_t_, ptr %34, i32 0, i32 2
  store ptr null, ptr %35, align 8, !tbaa !44
  br label %37

36:                                               ; preds = %10
  br label %37

37:                                               ; preds = %36, %20
  br label %38

38:                                               ; preds = %37
  %39 = load i32, ptr %3, align 4, !tbaa !12
  %40 = add nsw i32 %39, 1
  store i32 %40, ptr %3, align 4, !tbaa !12
  br label %4, !llvm.loop !178

41:                                               ; preds = %4
  %42 = load ptr, ptr %2, align 8, !tbaa !33
  %43 = getelementptr inbounds nuw %struct.Vec_Wec_t_, ptr %42, i32 0, i32 2
  %44 = load ptr, ptr %43, align 8, !tbaa !41
  %45 = icmp ne ptr %44, null
  br i1 %45, label %46, label %52

46:                                               ; preds = %41
  %47 = load ptr, ptr %2, align 8, !tbaa !33
  %48 = getelementptr inbounds nuw %struct.Vec_Wec_t_, ptr %47, i32 0, i32 2
  %49 = load ptr, ptr %48, align 8, !tbaa !41
  call void @free(ptr noundef %49) #10
  %50 = load ptr, ptr %2, align 8, !tbaa !33
  %51 = getelementptr inbounds nuw %struct.Vec_Wec_t_, ptr %50, i32 0, i32 2
  store ptr null, ptr %51, align 8, !tbaa !41
  br label %53

52:                                               ; preds = %41
  br label %53

53:                                               ; preds = %52, %46
  %54 = load ptr, ptr %2, align 8, !tbaa !33
  %55 = getelementptr inbounds nuw %struct.Vec_Wec_t_, ptr %54, i32 0, i32 1
  store i32 0, ptr %55, align 4, !tbaa !38
  %56 = load ptr, ptr %2, align 8, !tbaa !33
  %57 = getelementptr inbounds nuw %struct.Vec_Wec_t_, ptr %56, i32 0, i32 0
  store i32 0, ptr %57, align 8, !tbaa !40
  call void @llvm.lifetime.end.p0(i64 4, ptr %3) #10
  ret void
}

; Function Attrs: inlinehint nounwind uwtable
define internal void @Vec_WecFree(ptr noundef %0) #1 {
  %2 = alloca ptr, align 8
  store ptr %0, ptr %2, align 8, !tbaa !33
  %3 = load ptr, ptr %2, align 8, !tbaa !33
  call void @Vec_WecErase(ptr noundef %3)
  %4 = load ptr, ptr %2, align 8, !tbaa !33
  %5 = icmp ne ptr %4, null
  br i1 %5, label %6, label %8

6:                                                ; preds = %1
  %7 = load ptr, ptr %2, align 8, !tbaa !33
  call void @free(ptr noundef %7) #10
  store ptr null, ptr %2, align 8, !tbaa !33
  br label %9

8:                                                ; preds = %1
  br label %9

9:                                                ; preds = %8, %6
  ret void
}

; Function Attrs: inlinehint nounwind uwtable
define internal i32 @Vec_WecSize(ptr noundef %0) #1 {
  %2 = alloca ptr, align 8
  store ptr %0, ptr %2, align 8, !tbaa !33
  %3 = load ptr, ptr %2, align 8, !tbaa !33
  %4 = getelementptr inbounds nuw %struct.Vec_Wec_t_, ptr %3, i32 0, i32 1
  %5 = load i32, ptr %4, align 4, !tbaa !38
  ret i32 %5
}

; Function Attrs: nounwind uwtable
define ptr @Gia_ManMulFindA(ptr noundef %0, ptr noundef %1, i32 noundef %2) #0 {
  %4 = alloca ptr, align 8
  %5 = alloca ptr, align 8
  %6 = alloca i32, align 4
  %7 = alloca ptr, align 8
  %8 = alloca ptr, align 8
  store ptr %0, ptr %4, align 8, !tbaa !3
  store ptr %1, ptr %5, align 8, !tbaa !33
  store i32 %2, ptr %6, align 4, !tbaa !12
  call void @llvm.lifetime.start.p0(i64 8, ptr %7) #10
  %9 = load ptr, ptr %4, align 8, !tbaa !3
  %10 = load ptr, ptr %5, align 8, !tbaa !33
  %11 = load i32, ptr %6, align 4, !tbaa !12
  %12 = call ptr @Gia_ManMulFindXors(ptr noundef %9, ptr noundef %10, i32 noundef %11)
  store ptr %12, ptr %7, align 8, !tbaa !33
  call void @llvm.lifetime.start.p0(i64 8, ptr %8) #10
  %13 = load ptr, ptr %4, align 8, !tbaa !3
  %14 = load i32, ptr %6, align 4, !tbaa !12
  %15 = call ptr @Gia_ManMulFindAInputs2(ptr noundef %13, i32 noundef %14)
  store ptr %15, ptr %8, align 8, !tbaa !33
  %16 = load ptr, ptr %8, align 8, !tbaa !33
  %17 = call i32 @Vec_WecSize(ptr noundef %16)
  %18 = icmp ne i32 %17, 0
  br i1 %18, label %19, label %23

19:                                               ; preds = %3
  %20 = load ptr, ptr %4, align 8, !tbaa !3
  %21 = load ptr, ptr %8, align 8, !tbaa !33
  %22 = load i32, ptr %6, align 4, !tbaa !12
  call void @Gia_ManMulFindOutputs(ptr noundef %20, ptr noundef %21, i32 noundef %22)
  br label %23

23:                                               ; preds = %19, %3
  %24 = load ptr, ptr %7, align 8, !tbaa !33
  call void @Vec_WecFree(ptr noundef %24)
  %25 = load ptr, ptr %8, align 8, !tbaa !33
  call void @llvm.lifetime.end.p0(i64 8, ptr %8) #10
  call void @llvm.lifetime.end.p0(i64 8, ptr %7) #10
  ret ptr %25
}