; Function Attrs: nounwind uwtable
define noalias noundef ptr @Gia_ManMulFindA(ptr noundef %0, ptr noundef readonly captures(none) %1, i32 noundef %2) local_unnamed_addr #0 {
  %4 = tail call ptr @Gia_ManMulFindXors(ptr noundef %0, ptr noundef %1, i32 poison)
  %5 = tail call ptr @Gia_ManMulFindAInputs2(ptr noundef %0, i32 noundef %2)
  %6 = getelementptr i8, ptr %5, i64 4
  %.val = load i32, ptr %6, align 4, !tbaa !36
  %.not = icmp eq i32 %.val, 0
  br i1 %.not, label %8, label %7

7:                                                ; preds = %3
  tail call void @Gia_ManMulFindOutputs(ptr noundef %0, ptr noundef nonnull %5, i32 poison)
  br label %8

8:                                                ; preds = %7, %3
  %9 = load i32, ptr %4, align 8, !tbaa !38
  %10 = icmp sgt i32 %9, 0
  %11 = getelementptr inbounds nuw i8, ptr %4, i64 8
  %.pre.i.i = load ptr, ptr %11, align 8, !tbaa !39
  br i1 %10, label %.lr.ph.i.i.preheader, label %._crit_edge.i.i

.lr.ph.i.i.preheader:                             ; preds = %8
  %12 = zext nneg i32 %9 to i64
  br label %.lr.ph.i.i

.lr.ph.i.i:                                       ; preds = %.lr.ph.i.i.preheader, %16
  %indvars.iv.i.i = phi i64 [ %indvars.iv.next.i.i, %16 ], [ 0, %.lr.ph.i.i.preheader ]
  %13 = getelementptr inbounds nuw %struct.Vec_Int_t_, ptr %.pre.i.i, i64 %indvars.iv.i.i, i32 2
  %14 = load ptr, ptr %13, align 8, !tbaa !35
  %.not15.i.i = icmp eq ptr %14, null
  br i1 %.not15.i.i, label %16, label %15

15:                                               ; preds = %.lr.ph.i.i
  tail call void @free(ptr noundef nonnull %14) #19
  store ptr null, ptr %13, align 8, !tbaa !35
  br label %16

16:                                               ; preds = %15, %.lr.ph.i.i
  %indvars.iv.next.i.i = add nuw nsw i64 %indvars.iv.i.i, 1
  %exitcond.not = icmp eq i64 %indvars.iv.next.i.i, %12
  br i1 %exitcond.not, label %._crit_edge.thread.i.i, label %.lr.ph.i.i, !llvm.loop !67

._crit_edge.i.i:                                  ; preds = %8
  %.not.i.i = icmp eq ptr %.pre.i.i, null
  br i1 %.not.i.i, label %Vec_WecFree.exit, label %._crit_edge.thread.i.i

._crit_edge.thread.i.i:                           ; preds = %16, %._crit_edge.i.i
  tail call void @free(ptr noundef nonnull %.pre.i.i) #19
  br label %Vec_WecFree.exit

Vec_WecFree.exit:                                 ; preds = %._crit_edge.i.i, %._crit_edge.thread.i.i
  tail call void @free(ptr noundef nonnull %4) #19
  ret ptr %5
}